target datalayout = "e-m:e-p270:32:32-p271:32:32-p272:64:64-i64:64-i128:128-f80:128-n8:16:32:64-S128"
target triple = "x86_64-pc-linux-gnu"

%struct.pseudo_merge_map = type { ptr, i64, i64, ptr, ptr, i64 }
%struct.pseudo_merge = type { ptr, ptr, i64, i64, i8 }

@.str.3 = private unnamed_addr constant [15 x i8] c"pseudo-merge.c\00", align 1
@.str.4 = private unnamed_addr constant [40 x i8] c"cannot use unloaded pseudo-merge bitmap\00", align 1

; Function Attrs: nounwind uwtable
define dso_local ptr @pseudo_merge_bitmap(ptr noundef %0, ptr noundef %1) #0 {
  %3 = alloca ptr, align 8
  %4 = alloca ptr, align 8
  %5 = alloca i64, align 8
  store ptr %0, ptr %3, align 8, !tbaa !126
  store ptr %1, ptr %4, align 8, !tbaa !136
  %6 = load ptr, ptr %4, align 8, !tbaa !136
  %7 = getelementptr inbounds nuw %struct.pseudo_merge, ptr %6, i32 0, i32 4
  %8 = load i8, ptr %7, align 8
  %9 = lshr i8 %8, 1
  %10 = and i8 %9, 1
  %11 = zext i8 %10 to i32
  %12 = icmp ne i32 %11, 0
  br i1 %12, label %14, label %13

13:                                               ; preds = %2
  call void (ptr, i32, ptr, ...) @BUG_fl(ptr noundef @.str.3, i32 noundef 526, ptr noundef @.str.4) #11
  unreachable

14:                                               ; preds = %2
  %15 = load ptr, ptr %4, align 8, !tbaa !136
  %16 = getelementptr inbounds nuw %struct.pseudo_merge, ptr %15, i32 0, i32 4
  %17 = load i8, ptr %16, align 8
  %18 = lshr i8 %17, 2
  %19 = and i8 %18, 1
  %20 = zext i8 %19 to i32
  %21 = icmp ne i32 %20, 0
  br i1 %21, label %40, label %22

22:                                               ; preds = %14
  call void @llvm.lifetime.start.p0(i64 8, ptr %5) #10
  %23 = load ptr, ptr %4, align 8, !tbaa !136
  %24 = getelementptr inbounds nuw %struct.pseudo_merge, ptr %23, i32 0, i32 3
  %25 = load i64, ptr %24, align 8, !tbaa !137
  store i64 %25, ptr %5, align 8, !tbaa !36
  %26 = load ptr, ptr %3, align 8, !tbaa !126
  %27 = getelementptr inbounds nuw %struct.pseudo_merge_map, ptr %26, i32 0, i32 3
  %28 = load ptr, ptr %27, align 8, !tbaa !138
  %29 = load ptr, ptr %3, align 8, !tbaa !126
  %30 = getelementptr inbounds nuw %struct.pseudo_merge_map, ptr %29, i32 0, i32 5
  %31 = load i64, ptr %30, align 8, !tbaa !139
  %32 = call ptr @read_bitmap(ptr noundef %28, i64 noundef %31, ptr noundef %5)
  %33 = load ptr, ptr %4, align 8, !tbaa !136
  %34 = getelementptr inbounds nuw %struct.pseudo_merge, ptr %33, i32 0, i32 1
  store ptr %32, ptr %34, align 8, !tbaa !134
  %35 = load ptr, ptr %4, align 8, !tbaa !136
  %36 = getelementptr inbounds nuw %struct.pseudo_merge, ptr %35, i32 0, i32 4
  %37 = load i8, ptr %36, align 8
  %38 = and i8 %37, -5
  %39 = or i8 %38, 4
  store i8 %39, ptr %36, align 8
  call void @llvm.lifetime.end.p0(i64 8, ptr %5) #10
  br label %40

40:                                               ; preds = %22, %14
  %41 = load ptr, ptr %4, align 8, !tbaa !136
  %42 = getelementptr inbounds nuw %struct.pseudo_merge, ptr %41, i32 0, i32 1
  %43 = load ptr, ptr %42, align 8, !tbaa !134
  ret ptr %43
}

; Function Attrs: nounwind uwtable
define internal i32 @apply_pseudo_merge(ptr noundef %0, ptr noundef %1, ptr noundef %2, ptr noundef %3) #0 {
  %5 = alloca i32, align 4
  %6 = alloca ptr, align 8
  %7 = alloca ptr, align 8
  %8 = alloca ptr, align 8
  %9 = alloca ptr, align 8
  store ptr %0, ptr %6, align 8, !tbaa !126
  store ptr %1, ptr %7, align 8, !tbaa !136
  store ptr %2, ptr %8, align 8, !tbaa !141
  store ptr %3, ptr %9, align 8, !tbaa !141
  %10 = load ptr, ptr %7, align 8, !tbaa !136
  %11 = getelementptr inbounds nuw %struct.pseudo_merge, ptr %10, i32 0, i32 4
  %12 = load i8, ptr %11, align 8
  %13 = and i8 %12, 1
  %14 = zext i8 %13 to i32
  %15 = icmp ne i32 %14, 0
  br i1 %15, label %16, label %17

16:                                               ; preds = %4
  store i32 0, ptr %5, align 4
  br label %50

17:                                               ; preds = %4
  %18 = load ptr, ptr %7, align 8, !tbaa !136
  %19 = getelementptr inbounds nuw %struct.pseudo_merge, ptr %18, i32 0, i32 0
  %20 = load ptr, ptr %19, align 8, !tbaa !132
  %21 = load ptr, ptr %9, align 8, !tbaa !141
  %22 = icmp ne ptr %21, null
  br i1 %22, label %23, label %25

23:                                               ; preds = %17
  %24 = load ptr, ptr %9, align 8, !tbaa !141
  br label %27

25:                                               ; preds = %17
  %26 = load ptr, ptr %8, align 8, !tbaa !141
  br label %27

27:                                               ; preds = %25, %23
  %28 = phi ptr [ %24, %23 ], [ %26, %25 ]
  %29 = call i32 @ewah_bitmap_is_subset(ptr noundef %20, ptr noundef %28)
  %30 = icmp ne i32 %29, 0
  br i1 %30, label %32, label %31

31:                                               ; preds = %27
  store i32 0, ptr %5, align 4
  br label %50

32:                                               ; preds = %27
  %33 = load ptr, ptr %8, align 8, !tbaa !141
  %34 = load ptr, ptr %6, align 8, !tbaa !126
  %35 = load ptr, ptr %7, align 8, !tbaa !136
  %36 = call ptr @pseudo_merge_bitmap(ptr noundef %34, ptr noundef %35)
  call void @bitmap_or_ewah(ptr noundef %33, ptr noundef %36)
  %37 = load ptr, ptr %9, align 8, !tbaa !141
  %38 = icmp ne ptr %37, null
  br i1 %38, label %39, label %44

39:                                               ; preds = %32
  %40 = load ptr, ptr %9, align 8, !tbaa !141
  %41 = load ptr, ptr %6, align 8, !tbaa !126
  %42 = load ptr, ptr %7, align 8, !tbaa !136
  %43 = call ptr @pseudo_merge_bitmap(ptr noundef %41, ptr noundef %42)
  call void @bitmap_or_ewah(ptr noundef %40, ptr noundef %43)
  br label %44

44:                                               ; preds = %39, %32
  %45 = load ptr, ptr %7, align 8, !tbaa !136
  %46 = getelementptr inbounds nuw %struct.pseudo_merge, ptr %45, i32 0, i32 4
  %47 = load i8, ptr %46, align 8
  %48 = and i8 %47, -2
  %49 = or i8 %48, 1
  store i8 %49, ptr %46, align 8
  store i32 1, ptr %5, align 4
  br label %50

50:                                               ; preds = %44, %31, %16
  %51 = load i32, ptr %5, align 4
  ret i32 %51
}

; Function Attrs: nounwind uwtable
define dso_local ptr @use_pseudo_merge(ptr noundef %0, ptr noundef %1) #0 {
  %3 = alloca ptr, align 8
  %4 = alloca ptr, align 8
  %5 = alloca i64, align 8
  store ptr %0, ptr %3, align 8, !tbaa !126
  store ptr %1, ptr %4, align 8, !tbaa !136
  %6 = load ptr, ptr %4, align 8, !tbaa !136
  %7 = getelementptr inbounds nuw %struct.pseudo_merge, ptr %6, i32 0, i32 4
  %8 = load i8, ptr %7, align 8
  %9 = lshr i8 %8, 1
  %10 = and i8 %9, 1
  %11 = zext i8 %10 to i32
  %12 = icmp ne i32 %11, 0
  br i1 %12, label %34, label %13

13:                                               ; preds = %2
  call void @llvm.lifetime.start.p0(i64 8, ptr %5) #10
  %14 = load ptr, ptr %4, align 8, !tbaa !136
  %15 = getelementptr inbounds nuw %struct.pseudo_merge, ptr %14, i32 0, i32 2
  %16 = load i64, ptr %15, align 8, !tbaa !140
  store i64 %16, ptr %5, align 8, !tbaa !36
  %17 = load ptr, ptr %3, align 8, !tbaa !126
  %18 = getelementptr inbounds nuw %struct.pseudo_merge_map, ptr %17, i32 0, i32 3
  %19 = load ptr, ptr %18, align 8, !tbaa !138
  %20 = load ptr, ptr %3, align 8, !tbaa !126
  %21 = getelementptr inbounds nuw %struct.pseudo_merge_map, ptr %20, i32 0, i32 5
  %22 = load i64, ptr %21, align 8, !tbaa !139
  %23 = call ptr @read_bitmap(ptr noundef %19, i64 noundef %22, ptr noundef %5)
  %24 = load ptr, ptr %4, align 8, !tbaa !136
  %25 = getelementptr inbounds nuw %struct.pseudo_merge, ptr %24, i32 0, i32 0
  store ptr %23, ptr %25, align 8, !tbaa !132
  %26 = load i64, ptr %5, align 8, !tbaa !36
  %27 = load ptr, ptr %4, align 8, !tbaa !136
  %28 = getelementptr inbounds nuw %struct.pseudo_merge, ptr %27, i32 0, i32 3
  store i64 %26, ptr %28, align 8, !tbaa !137
  %29 = load ptr, ptr %4, align 8, !tbaa !136
  %30 = getelementptr inbounds nuw %struct.pseudo_merge, ptr %29, i32 0, i32 4
  %31 = load i8, ptr %30, align 8
  %32 = and i8 %31, -3
  %33 = or i8 %32, 2
  store i8 %33, ptr %30, align 8
  call void @llvm.lifetime.end.p0(i64 8, ptr %5) #10
  br label %34

34:                                               ; preds = %13, %2
  %35 = load ptr, ptr %4, align 8, !tbaa !136
  ret ptr %35
}

; Function Attrs: nounwind uwtable
define dso_local i32 @cascade_pseudo_merges(ptr noundef %0, ptr noundef %1, ptr noundef %2) #0 {
  %4 = alloca ptr, align 8
  %5 = alloca ptr, align 8
  %6 = alloca ptr, align 8
  %7 = alloca i32, align 4
  %8 = alloca i32, align 4
  %9 = alloca ptr, align 8
  %10 = alloca i32, align 4
  store ptr %0, ptr %4, align 8, !tbaa !126
  store ptr %1, ptr %5, align 8, !tbaa !141
  store ptr %2, ptr %6, align 8, !tbaa !141
  call void @llvm.lifetime.start.p0(i64 4, ptr %7) #10
  call void @llvm.lifetime.start.p0(i64 4, ptr %8) #10
  store i32 0, ptr %8, align 4, !tbaa !59
  br label %11

11:                                               ; preds = %44, %3
  call void @llvm.lifetime.start.p0(i64 8, ptr %9) #10
  call void @llvm.lifetime.start.p0(i64 4, ptr %10) #10
  store i32 0, ptr %7, align 4, !tbaa !59
  store i32 0, ptr %10, align 4, !tbaa !59
  br label %12

12:                                               ; preds = %40, %11
  %13 = load i32, ptr %10, align 4, !tbaa !59
  %14 = zext i32 %13 to i64
  %15 = load ptr, ptr %4, align 8, !tbaa !126
  %16 = getelementptr inbounds nuw %struct.pseudo_merge_map, ptr %15, i32 0, i32 1
  %17 = load i64, ptr %16, align 8, !tbaa !128
  %18 = icmp ult i64 %14, %17
  br i1 %18, label %19, label %43

19:                                               ; preds = %12
  %20 = load ptr, ptr %4, align 8, !tbaa !126
  %21 = load ptr, ptr %4, align 8, !tbaa !126
  %22 = getelementptr inbounds nuw %struct.pseudo_merge_map, ptr %21, i32 0, i32 0
  %23 = load ptr, ptr %22, align 8, !tbaa !131
  %24 = load i32, ptr %10, align 4, !tbaa !59
  %25 = zext i32 %24 to i64
  %26 = getelementptr inbounds nuw %struct.pseudo_merge, ptr %23, i64 %25
  %27 = call ptr @use_pseudo_merge(ptr noundef %20, ptr noundef %26)
  store ptr %27, ptr %9, align 8, !tbaa !136
  %28 = load ptr, ptr %4, align 8, !tbaa !126
  %29 = load ptr, ptr %9, align 8, !tbaa !136
  %30 = load ptr, ptr %5, align 8, !tbaa !141
  %31 = load ptr, ptr %6, align 8, !tbaa !141
  %32 = call i32 @apply_pseudo_merge(ptr noundef %28, ptr noundef %29, ptr noundef %30, ptr noundef %31)
  %33 = icmp ne i32 %32, 0
  br i1 %33, label %34, label %39

34:                                               ; preds = %19
  %35 = load i32, ptr %7, align 4, !tbaa !59
  %36 = or i32 %35, 1
  store i32 %36, ptr %7, align 4, !tbaa !59
  %37 = load i32, ptr %8, align 4, !tbaa !59
  %38 = add nsw i32 %37, 1
  store i32 %38, ptr %8, align 4, !tbaa !59
  br label %39

39:                                               ; preds = %34, %19
  br label %40

40:                                               ; preds = %39
  %41 = load i32, ptr %10, align 4, !tbaa !59
  %42 = add i32 %41, 1
  store i32 %42, ptr %10, align 4, !tbaa !59
  br label %12, !llvm.loop !156

43:                                               ; preds = %12
  call void @llvm.lifetime.end.p0(i64 4, ptr %10) #10
  call void @llvm.lifetime.end.p0(i64 8, ptr %9) #10
  br label %44

44:                                               ; preds = %43
  %45 = load i32, ptr %7, align 4, !tbaa !59
  %46 = icmp ne i32 %45, 0
  br i1 %46, label %11, label %47, !llvm.loop !157

47:                                               ; preds = %44
  %48 = load i32, ptr %8, align 4, !tbaa !59
  call void @llvm.lifetime.end.p0(i64 4, ptr %8) #10
  call void @llvm.lifetime.end.p0(i64 4, ptr %7) #10
  ret i32 %48
}