; Function Attrs: nounwind uwtable
define dso_local i32 @cascade_pseudo_merges(ptr noundef readonly captures(none) %0, ptr noundef %1, ptr noundef %2) local_unnamed_addr #0 {
  %4 = alloca i64, align 8
  %5 = alloca i64, align 8
  %6 = alloca i64, align 8
  %7 = getelementptr inbounds nuw i8, ptr %0, i64 8
  %8 = getelementptr inbounds nuw i8, ptr %0, i64 24
  %9 = getelementptr inbounds nuw i8, ptr %0, i64 40
  %.not14.i = icmp eq ptr %2, null
  %10 = select i1 %.not14.i, ptr %1, ptr %2
  %11 = load i64, ptr %7, align 8, !tbaa !102
  %.not30 = icmp eq i64 %11, 0
  br i1 %.not30, label %.split29.us, label %.split

.split:                                           ; preds = %3, %._crit_edge
  %12 = phi i64 [ %72, %._crit_edge ], [ 1, %3 ]
  %.014 = phi i32 [ %spec.select35, %._crit_edge ], [ 0, %3 ]
  %.not31 = icmp eq i64 %12, 0
  br i1 %.not31, label %.split29.us, label %.lr.ph

.lr.ph:                                           ; preds = %.split, %68
  %13 = phi i64 [ %71, %68 ], [ 0, %.split ]
  %.026 = phi i32 [ %70, %68 ], [ 0, %.split ]
  %.01325 = phi i32 [ %69, %68 ], [ 0, %.split ]
  %.11524 = phi i32 [ %spec.select35, %68 ], [ %.014, %.split ]
  %14 = load ptr, ptr %0, align 8, !tbaa !105
  %15 = getelementptr inbounds nuw %struct.pseudo_merge, ptr %14, i64 %13
  %16 = getelementptr inbounds nuw i8, ptr %15, i64 32
  %17 = load i8, ptr %16, align 8
  %18 = and i8 %17, 2
  %.not.i = icmp eq i8 %18, 0
  br i1 %.not.i, label %19, label %use_pseudo_merge.exit

19:                                               ; preds = %.lr.ph
  call void @llvm.lifetime.start.p0(i64 8, ptr nonnull %6) #15
  %20 = getelementptr inbounds nuw i8, ptr %15, i64 16
  %21 = load i64, ptr %20, align 8, !tbaa !114
  store i64 %21, ptr %6, align 8, !tbaa !111
  %22 = load ptr, ptr %8, align 8, !tbaa !112
  %23 = load i64, ptr %9, align 8, !tbaa !113
  %24 = call ptr @read_bitmap(ptr noundef %22, i64 noundef %23, ptr noundef nonnull %6) #15
  store ptr %24, ptr %15, align 8, !tbaa !106
  %25 = load i64, ptr %6, align 8, !tbaa !111
  %26 = getelementptr inbounds nuw i8, ptr %15, i64 24
  store i64 %25, ptr %26, align 8, !tbaa !110
  %27 = load i8, ptr %16, align 8
  %28 = or i8 %27, 2
  store i8 %28, ptr %16, align 8
  call void @llvm.lifetime.end.p0(i64 8, ptr nonnull %6) #15
  %.pre = load i8, ptr %16, align 8
  br label %use_pseudo_merge.exit

use_pseudo_merge.exit:                            ; preds = %.lr.ph, %19
  %29 = phi i8 [ %17, %.lr.ph ], [ %.pre, %19 ]
  %30 = and i8 %29, 1
  %.not.i19 = icmp eq i8 %30, 0
  br i1 %.not.i19, label %31, label %68

31:                                               ; preds = %use_pseudo_merge.exit
  %32 = load ptr, ptr %15, align 8, !tbaa !106
  %33 = call i32 @ewah_bitmap_is_subset(ptr noundef %32, ptr noundef %10) #15
  %.not15.i = icmp eq i32 %33, 0
  br i1 %.not15.i, label %68, label %34

34:                                               ; preds = %31
  %35 = load i8, ptr %16, align 8
  %36 = and i8 %35, 2
  %.not.i.i = icmp eq i8 %36, 0
  br i1 %.not.i.i, label %37, label %38

37:                                               ; preds = %34
  call void (ptr, i32, ptr, ...) @BUG_fl(ptr noundef nonnull @.str.3, i32 noundef 526, ptr noundef nonnull @.str.4) #16
  unreachable

38:                                               ; preds = %34
  %39 = and i8 %35, 4
  %.not8.i.i = icmp eq i8 %39, 0
  br i1 %.not8.i.i, label %40, label %._crit_edge.i.i

._crit_edge.i.i:                                  ; preds = %38
  %.phi.trans.insert.i.i = getelementptr inbounds nuw i8, ptr %15, i64 8
  %.pre.i.i = load ptr, ptr %.phi.trans.insert.i.i, align 8, !tbaa !108
  br label %pseudo_merge_bitmap.exit.i

40:                                               ; preds = %38
  call void @llvm.lifetime.start.p0(i64 8, ptr nonnull %5) #15
  %41 = getelementptr inbounds nuw i8, ptr %15, i64 24
  %42 = load i64, ptr %41, align 8, !tbaa !110
  store i64 %42, ptr %5, align 8, !tbaa !111
  %43 = load ptr, ptr %8, align 8, !tbaa !112
  %44 = load i64, ptr %9, align 8, !tbaa !113
  %45 = call ptr @read_bitmap(ptr noundef %43, i64 noundef %44, ptr noundef nonnull %5) #15
  %46 = getelementptr inbounds nuw i8, ptr %15, i64 8
  store ptr %45, ptr %46, align 8, !tbaa !108
  %47 = load i8, ptr %16, align 8
  %48 = or i8 %47, 4
  store i8 %48, ptr %16, align 8
  call void @llvm.lifetime.end.p0(i64 8, ptr nonnull %5) #15
  br label %pseudo_merge_bitmap.exit.i

pseudo_merge_bitmap.exit.i:                       ; preds = %40, %._crit_edge.i.i
  %49 = phi ptr [ %.pre.i.i, %._crit_edge.i.i ], [ %45, %40 ]
  call void @bitmap_or_ewah(ptr noundef %1, ptr noundef %49) #15
  br i1 %.not14.i, label %apply_pseudo_merge.exit, label %50

50:                                               ; preds = %pseudo_merge_bitmap.exit.i
  %51 = load i8, ptr %16, align 8
  %52 = and i8 %51, 2
  %.not.i16.i = icmp eq i8 %52, 0
  br i1 %.not.i16.i, label %53, label %54

53:                                               ; preds = %50
  call void (ptr, i32, ptr, ...) @BUG_fl(ptr noundef nonnull @.str.3, i32 noundef 526, ptr noundef nonnull @.str.4) #16
  unreachable

54:                                               ; preds = %50
  %55 = and i8 %51, 4
  %.not8.i17.i = icmp eq i8 %55, 0
  br i1 %.not8.i17.i, label %56, label %._crit_edge.i18.i

._crit_edge.i18.i:                                ; preds = %54
  %.phi.trans.insert.i19.i = getelementptr inbounds nuw i8, ptr %15, i64 8
  %.pre.i20.i = load ptr, ptr %.phi.trans.insert.i19.i, align 8, !tbaa !108
  br label %pseudo_merge_bitmap.exit21.i

56:                                               ; preds = %54
  call void @llvm.lifetime.start.p0(i64 8, ptr nonnull %4) #15
  %57 = getelementptr inbounds nuw i8, ptr %15, i64 24
  %58 = load i64, ptr %57, align 8, !tbaa !110
  store i64 %58, ptr %4, align 8, !tbaa !111
  %59 = load ptr, ptr %8, align 8, !tbaa !112
  %60 = load i64, ptr %9, align 8, !tbaa !113
  %61 = call ptr @read_bitmap(ptr noundef %59, i64 noundef %60, ptr noundef nonnull %4) #15
  %62 = getelementptr inbounds nuw i8, ptr %15, i64 8
  store ptr %61, ptr %62, align 8, !tbaa !108
  %63 = load i8, ptr %16, align 8
  %64 = or i8 %63, 4
  store i8 %64, ptr %16, align 8
  call void @llvm.lifetime.end.p0(i64 8, ptr nonnull %4) #15
  br label %pseudo_merge_bitmap.exit21.i

pseudo_merge_bitmap.exit21.i:                     ; preds = %56, %._crit_edge.i18.i
  %65 = phi ptr [ %.pre.i20.i, %._crit_edge.i18.i ], [ %61, %56 ]
  call void @bitmap_or_ewah(ptr noundef nonnull %2, ptr noundef %65) #15
  br label %apply_pseudo_merge.exit

apply_pseudo_merge.exit:                          ; preds = %pseudo_merge_bitmap.exit.i, %pseudo_merge_bitmap.exit21.i
  %66 = load i8, ptr %16, align 8
  %67 = or i8 %66, 1
  store i8 %67, ptr %16, align 8
  %spec.select = add nsw i32 %.11524, 1
  br label %68

68:                                               ; preds = %31, %use_pseudo_merge.exit, %apply_pseudo_merge.exit
  %spec.select35 = phi i32 [ %spec.select, %apply_pseudo_merge.exit ], [ %.11524, %use_pseudo_merge.exit ], [ %.11524, %31 ]
  %69 = phi i32 [ 1, %apply_pseudo_merge.exit ], [ %.01325, %use_pseudo_merge.exit ], [ %.01325, %31 ]
  %70 = add i32 %.026, 1
  %71 = zext i32 %70 to i64
  %72 = load i64, ptr %7, align 8, !tbaa !102
  %73 = icmp ugt i64 %72, %71
  br i1 %73, label %.lr.ph, label %._crit_edge, !llvm.loop !122

._crit_edge:                                      ; preds = %68
  %74 = icmp eq i32 %69, 0
  br i1 %74, label %.split29.us, label %.split, !llvm.loop !123

.split29.us:                                      ; preds = %.split, %._crit_edge, %3
  %.us-phi = phi i32 [ 0, %3 ], [ %.014, %.split ], [ %spec.select35, %._crit_edge ]
  ret i32 %.us-phi
}